; Function Attrs: mustprogress nofree norecurse nosync nounwind willreturn memory(read, inaccessiblemem: none) uwtable
define hidden range(i32 0, 2) i32 @ssl_has_private_key(ptr noundef readonly captures(none) %0) local_unnamed_addr #5 {
  %2 = getelementptr inbounds nuw i8, ptr %0, i64 136
  %3 = load ptr, ptr %2, align 8, !tbaa !6
  %4 = getelementptr inbounds nuw i8, ptr %3, i64 8
  %5 = load ptr, ptr %4, align 8, !tbaa !38
  %.not = icmp eq ptr %5, null
  br i1 %.not, label %6, label %11

6:                                                ; preds = %1
  %7 = getelementptr inbounds nuw i8, ptr %3, i64 24
  %8 = load ptr, ptr %7, align 8, !tbaa !53
  %9 = icmp ne ptr %8, null
  %10 = zext i1 %9 to i32
  br label %11

11:                                               ; preds = %6, %1
  %12 = phi i32 [ 1, %1 ], [ %10, %6 ]
  ret i32 %12
}